; ModuleID = '25/1181.cpp'
source_filename = "25/1181.cpp"
target datalayout = "e-m:e-p270:32:32-p271:32:32-p272:64:64-i64:64-f80:128-n8:16:32:64-S128"
target triple = "x86_64-pc-linux-gnu"

%"class.std::ios_base::Init" = type { i8 }
%"class.std::basic_istream" = type { i32 (...)**, i64, %"class.std::basic_ios" }
%"class.std::basic_ios" = type { %"class.std::ios_base", %"class.std::basic_ostream"*, i8, i8, %"class.std::basic_streambuf"*, %"class.std::ctype"*, %"class.std::num_put"*, %"class.std::num_get"* }
%"class.std::ios_base" = type { i32 (...)**, i64, i64, i32, i32, i32, %"struct.std::ios_base::_Callback_list"*, %"struct.std::ios_base::_Words", [8 x %"struct.std::ios_base::_Words"], i32, %"struct.std::ios_base::_Words"*, %"class.std::locale" }
%"struct.std::ios_base::_Callback_list" = type { %"struct.std::ios_base::_Callback_list"*, void (i32, %"class.std::ios_base"*, i32)*, i32, i32 }
%"struct.std::ios_base::_Words" = type { i8*, i64 }
%"class.std::locale" = type { %"class.std::locale::_Impl"* }
%"class.std::locale::_Impl" = type { i32, %"class.std::locale::facet"**, i64, %"class.std::locale::facet"**, i8** }
%"class.std::locale::facet" = type <{ i32 (...)**, i32, [4 x i8] }>
%"class.std::basic_ostream" = type { i32 (...)**, %"class.std::basic_ios" }
%"class.std::basic_streambuf" = type { i32 (...)**, i8*, i8*, i8*, i8*, i8*, i8*, %"class.std::locale" }
%"class.std::ctype" = type <{ %"class.std::locale::facet.base", [4 x i8], %struct.__locale_struct*, i8, [7 x i8], i32*, i32*, i16*, i8, [256 x i8], [256 x i8], i8, [6 x i8] }>
%"class.std::locale::facet.base" = type <{ i32 (...)**, i32 }>
%struct.__locale_struct = type { [13 x %struct.__locale_data*], i16*, i32*, i32*, [13 x i8*] }
%struct.__locale_data = type opaque
%"class.std::num_put" = type { %"class.std::locale::facet.base", [4 x i8] }
%"class.std::num_get" = type { %"class.std::locale::facet.base", [4 x i8] }

@_ZStL8__ioinit = internal global %"class.std::ios_base::Init" zeroinitializer, align 1
@__dso_handle = external hidden global i8
@_ZSt3cin = external dso_local global %"class.std::basic_istream", align 8
@_ZSt4cout = external dso_local global %"class.std::basic_ostream", align 8
@llvm.global_ctors = appending global [1 x { i32, void ()*, i8* }] [{ i32, void ()*, i8* } { i32 65535, void ()* @_GLOBAL__sub_I_1181.cpp, i8* null }]

; Function Attrs: noinline uwtable
define internal void @__cxx_global_var_init() #0 section ".text.startup" {
  call void @_ZNSt8ios_base4InitC1Ev(%"class.std::ios_base::Init"* @_ZStL8__ioinit)
  %1 = call i32 @__cxa_atexit(void (i8*)* bitcast (void (%"class.std::ios_base::Init"*)* @_ZNSt8ios_base4InitD1Ev to void (i8*)*), i8* getelementptr inbounds (%"class.std::ios_base::Init", %"class.std::ios_base::Init"* @_ZStL8__ioinit, i32 0, i32 0), i8* @__dso_handle) #3
  ret void
}

declare dso_local void @_ZNSt8ios_base4InitC1Ev(%"class.std::ios_base::Init"*) unnamed_addr #1

; Function Attrs: nounwind
declare dso_local void @_ZNSt8ios_base4InitD1Ev(%"class.std::ios_base::Init"*) unnamed_addr #2

; Function Attrs: nounwind
declare dso_local i32 @__cxa_atexit(void (i8*)*, i8*, i8*) #3

; Function Attrs: noinline norecurse uwtable
define dso_local i32 @main() #4 {
  %1 = alloca i32, align 4
  %2 = alloca [10000 x i32], align 16
  %3 = alloca i32, align 4
  %4 = alloca i32, align 4
  %5 = alloca i32, align 4
  %6 = alloca i32, align 4
  %7 = alloca i32, align 4
  %8 = alloca i32, align 4
  %9 = alloca i32, align 4
  store i32 0, i32* %1, align 4
  %10 = bitcast [10000 x i32]* %2 to i8*
  call void @llvm.memset.p0i8.i64(i8* align 16 %10, i8 0, i64 40000, i1 false)
  %11 = call dereferenceable(280) %"class.std::basic_istream"* @_ZNSirsERi(%"class.std::basic_istream"* @_ZSt3cin, i32* dereferenceable(4) %3)
  %12 = getelementptr inbounds [10000 x i32], [10000 x i32]* %2, i64 0, i64 0
  store i32 1, i32* %12, align 16
  %13 = load i32, i32* %3, align 4
  %14 = icmp eq i32 %13, 0
  br i1 %14, label %15, label %17

15:                                               ; preds = %0
  %16 = call dereferenceable(272) %"class.std::basic_ostream"* @_ZStlsISt11char_traitsIcEERSt13basic_ostreamIcT_ES5_c(%"class.std::basic_ostream"* dereferenceable(272) @_ZSt4cout, i8 signext 49)
  br label %17

17:                                               ; preds = %15, %0
  store i32 0, i32* %4, align 4
  store i32 1, i32* %5, align 4
  br label %18

18:                                               ; preds = %67, %17
  %19 = load i32, i32* %5, align 4
  %20 = load i32, i32* %3, align 4
  %21 = icmp sle i32 %19, %20
  br i1 %21, label %22, label %70

22:                                               ; preds = %18
  store i32 1, i32* %6, align 4
  br label %23

23:                                               ; preds = %63, %22
  %24 = load i32, i32* %6, align 4
  %25 = icmp sle i32 %24, 10000
  br i1 %25, label %26, label %66

26:                                               ; preds = %23
  %27 = load i32, i32* %6, align 4
  %28 = sub nsw i32 %27, 1
  %29 = sext i32 %28 to i64
  %30 = getelementptr inbounds [10000 x i32], [10000 x i32]* %2, i64 0, i64 %29
  %31 = load i32, i32* %30, align 4
  %32 = load i32, i32* %6, align 4
  %33 = sub nsw i32 %32, 1
  %34 = sext i32 %33 to i64
  %35 = getelementptr inbounds [10000 x i32], [10000 x i32]* %2, i64 0, i64 %34
  %36 = load i32, i32* %35, align 4
  %37 = add nsw i32 %31, %36
  %38 = load i32, i32* %4, align 4
  %39 = add nsw i32 %37, %38
  %40 = load i32, i32* %6, align 4
  %41 = sub nsw i32 %40, 1
  %42 = sext i32 %41 to i64
  %43 = getelementptr inbounds [10000 x i32], [10000 x i32]* %2, i64 0, i64 %42
  store i32 %39, i32* %43, align 4
  %44 = load i32, i32* %6, align 4
  %45 = sub nsw i32 %44, 1
  %46 = sext i32 %45 to i64
  %47 = getelementptr inbounds [10000 x i32], [10000 x i32]* %2, i64 0, i64 %46
  %48 = load i32, i32* %47, align 4
  %49 = icmp sgt i32 %48, 9
  br i1 %49, label %50, label %61

50:                                               ; preds = %26
  %51 = load i32, i32* %6, align 4
  %52 = sub nsw i32 %51, 1
  %53 = sext i32 %52 to i64
  %54 = getelementptr inbounds [10000 x i32], [10000 x i32]* %2, i64 0, i64 %53
  %55 = load i32, i32* %54, align 4
  %56 = sub nsw i32 %55, 10
  %57 = load i32, i32* %6, align 4
  %58 = sub nsw i32 %57, 1
  %59 = sext i32 %58 to i64
  %60 = getelementptr inbounds [10000 x i32], [10000 x i32]* %2, i64 0, i64 %59
  store i32 %56, i32* %60, align 4
  store i32 1, i32* %4, align 4
  br label %62

61:                                               ; preds = %26
  store i32 0, i32* %4, align 4
  br label %62

62:                                               ; preds = %61, %50
  br label %63

63:                                               ; preds = %62
  %64 = load i32, i32* %6, align 4
  %65 = add nsw i32 %64, 1
  store i32 %65, i32* %6, align 4
  br label %23

66:                                               ; preds = %23
  br label %67

67:                                               ; preds = %66
  %68 = load i32, i32* %5, align 4
  %69 = add nsw i32 %68, 1
  store i32 %69, i32* %5, align 4
  br label %18

70:                                               ; preds = %18
  store i32 10000, i32* %8, align 4
  br label %71

71:                                               ; preds = %84, %70
  %72 = load i32, i32* %8, align 4
  %73 = icmp sgt i32 %72, 0
  br i1 %73, label %74, label %87

74:                                               ; preds = %71
  %75 = load i32, i32* %8, align 4
  %76 = sub nsw i32 %75, 1
  %77 = sext i32 %76 to i64
  %78 = getelementptr inbounds [10000 x i32], [10000 x i32]* %2, i64 0, i64 %77
  %79 = load i32, i32* %78, align 4
  %80 = icmp ne i32 %79, 0
  br i1 %80, label %81, label %83

81:                                               ; preds = %74
  %82 = load i32, i32* %8, align 4
  store i32 %82, i32* %7, align 4
  br label %87

83:                                               ; preds = %74
  br label %84

84:                                               ; preds = %83
  %85 = load i32, i32* %8, align 4
  %86 = add nsw i32 %85, -1
  store i32 %86, i32* %8, align 4
  br label %71

87:                                               ; preds = %81, %71
  %88 = load i32, i32* %3, align 4
  %89 = icmp ne i32 %88, 0
  br i1 %89, label %90, label %106

90:                                               ; preds = %87
  %91 = load i32, i32* %7, align 4
  store i32 %91, i32* %9, align 4
  br label %92

92:                                               ; preds = %102, %90
  %93 = load i32, i32* %9, align 4
  %94 = icmp sgt i32 %93, 0
  br i1 %94, label %95, label %105

95:                                               ; preds = %92
  %96 = load i32, i32* %9, align 4
  %97 = sub nsw i32 %96, 1
  %98 = sext i32 %97 to i64
  %99 = getelementptr inbounds [10000 x i32], [10000 x i32]* %2, i64 0, i64 %98
  %100 = load i32, i32* %99, align 4
  %101 = call dereferenceable(272) %"class.std::basic_ostream"* @_ZNSolsEi(%"class.std::basic_ostream"* @_ZSt4cout, i32 %100)
  br label %102

102:                                              ; preds = %95
  %103 = load i32, i32* %9, align 4
  %104 = add nsw i32 %103, -1
  store i32 %104, i32* %9, align 4
  br label %92

105:                                              ; preds = %92
  br label %106

106:                                              ; preds = %105, %87
  ret i32 0
}

; Function Attrs: argmemonly nounwind willreturn
declare void @llvm.memset.p0i8.i64(i8* nocapture writeonly, i8, i64, i1 immarg) #5

declare dso_local dereferenceable(280) %"class.std::basic_istream"* @_ZNSirsERi(%"class.std::basic_istream"*, i32* dereferenceable(4)) #1

declare dso_local dereferenceable(272) %"class.std::basic_ostream"* @_ZStlsISt11char_traitsIcEERSt13basic_ostreamIcT_ES5_c(%"class.std::basic_ostream"* dereferenceable(272), i8 signext) #1

declare dso_local dereferenceable(272) %"class.std::basic_ostream"* @_ZNSolsEi(%"class.std::basic_ostream"*, i32) #1

; Function Attrs: noinline uwtable
define internal void @_GLOBAL__sub_I_1181.cpp() #0 section ".text.startup" {
  call void @__cxx_global_var_init()
  ret void
}


!llvm.module.flags = !{!0}
!llvm.ident = !{!1}

!0 = !{i32 1, !"wchar_size", i32 4}
!1 = !{!"clang version 10.0.0-4ubuntu1 "}
