; ModuleID = 'source-C-CXX/24/1181.cpp'
source_filename = "source-C-CXX/24/1181.cpp"
target datalayout = "e-m:e-p270:32:32-p271:32:32-p272:64:64-i64:64-f80:128-n8:16:32:64-S128"
target triple = "x86_64-pc-linux-gnu"

%"class.std::ios_base::Init" = type { i8 }
%"class.std::basic_istream" = type { i32 (...)**, i64, %"class.std::basic_ios" }
%"class.std::basic_ios" = type { %"class.std::ios_base", %"class.std::basic_ostream"*, i8, i8, %"class.std::basic_streambuf"*, %"class.std::ctype"*, %"class.std::num_put"*, %"class.std::num_get"* }
%"class.std::ios_base" = type { i32 (...)**, i64, i64, i32, i32, i32, %"struct.std::ios_base::_Callback_list"*, %"struct.std::ios_base::_Words", [8 x %"struct.std::ios_base::_Words"], i32, %"struct.std::ios_base::_Words"*, %"class.std::locale" }
%"struct.std::ios_base::_Callback_list" = type { %"struct.std::ios_base::_Callback_list"*, void (i32, %"class.std::ios_base"*, i32)*, i32, i32 }
%"struct.std::ios_base::_Words" = type { i8*, i64 }
%"class.std::locale" = type { %"class.std::locale::_Impl"* }
%"class.std::locale::_Impl" = type { i32, %"class.std::locale::facet"**, i64, %"class.std::locale::facet"**, i8** }
%"class.std::locale::facet" = type <{ i32 (...)**, i32, [4 x i8] }>
%"class.std::basic_ostream" = type { i32 (...)**, %"class.std::basic_ios" }
%"class.std::basic_streambuf" = type { i32 (...)**, i8*, i8*, i8*, i8*, i8*, i8*, %"class.std::locale" }
%"class.std::ctype" = type <{ %"class.std::locale::facet.base", [4 x i8], %struct.__locale_struct*, i8, [7 x i8], i32*, i32*, i16*, i8, [256 x i8], [256 x i8], i8, [6 x i8] }>
%"class.std::locale::facet.base" = type <{ i32 (...)**, i32 }>
%struct.__locale_struct = type { [13 x %struct.__locale_data*], i16*, i32*, i32*, [13 x i8*] }
%struct.__locale_data = type opaque
%"class.std::num_put" = type { %"class.std::locale::facet.base", [4 x i8] }
%"class.std::num_get" = type { %"class.std::locale::facet.base", [4 x i8] }

@_ZStL8__ioinit = internal global %"class.std::ios_base::Init" zeroinitializer, align 1
@__dso_handle = external hidden global i8
@_ZSt3cin = external global %"class.std::basic_istream", align 8
@_ZSt4cout = external global %"class.std::basic_ostream", align 8
@llvm.global_ctors = appending global [1 x { i32, void ()*, i8* }] [{ i32, void ()*, i8* } { i32 65535, void ()* @_GLOBAL__sub_I_1181.cpp, i8* null }]

declare void @_ZNSt8ios_base4InitC1Ev(%"class.std::ios_base::Init"* nonnull align 1 dereferenceable(1)) unnamed_addr #0

; Function Attrs: nounwind
declare void @_ZNSt8ios_base4InitD1Ev(%"class.std::ios_base::Init"* nonnull align 1 dereferenceable(1)) unnamed_addr #1

; Function Attrs: nofree nounwind
declare i32 @__cxa_atexit(void (i8*)*, i8*, i8*) local_unnamed_addr #2

; Function Attrs: mustprogress norecurse sspstrong uwtable
define dso_local i32 @main() local_unnamed_addr #3 {
  %1 = alloca i8, align 1
  %2 = alloca [10000 x i32], align 16
  %3 = alloca i32, align 4
  %4 = bitcast [10000 x i32]* %2 to i8*
  call void @llvm.lifetime.start.p0i8(i64 40000, i8* nonnull %4) #7
  call void @llvm.memset.p0i8.i64(i8* noundef nonnull align 16 dereferenceable(40000) %4, i8 0, i64 40000, i1 false)
  %5 = bitcast i32* %3 to i8*
  call void @llvm.lifetime.start.p0i8(i64 4, i8* nonnull %5) #7
  %6 = call nonnull align 8 dereferenceable(16) %"class.std::basic_istream"* @_ZNSirsERi(%"class.std::basic_istream"* nonnull align 8 dereferenceable(16) @_ZSt3cin, i32* nonnull align 4 dereferenceable(4) %3)
  %7 = getelementptr inbounds [10000 x i32], [10000 x i32]* %2, i64 0, i64 0
  store i32 1, i32* %7, align 16, !tbaa !5
  %8 = load i32, i32* %3, align 4, !tbaa !5
  %9 = icmp eq i32 %8, 0
  br i1 %9, label %10, label %13

10:                                               ; preds = %0
  call void @llvm.lifetime.start.p0i8(i64 1, i8* nonnull %1)
  store i8 49, i8* %1, align 1, !tbaa !9
  %11 = call nonnull align 8 dereferenceable(8) %"class.std::basic_ostream"* @_ZSt16__ostream_insertIcSt11char_traitsIcEERSt13basic_ostreamIT_T0_ES6_PKS3_l(%"class.std::basic_ostream"* nonnull align 8 dereferenceable(8) @_ZSt4cout, i8* nonnull %1, i64 1)
  call void @llvm.lifetime.end.p0i8(i64 1, i8* nonnull %1)
  %12 = load i32, i32* %3, align 4, !tbaa !5
  br label %13

13:                                               ; preds = %10, %0
  %14 = phi i32 [ %12, %10 ], [ %8, %0 ]
  %15 = icmp slt i32 %14, 1
  br i1 %15, label %16, label %17

16:                                               ; preds = %20, %13
  br label %45

17:                                               ; preds = %13, %20
  %18 = phi i32 [ %21, %20 ], [ 1, %13 ]
  %19 = phi i32 [ %42, %20 ], [ 0, %13 ]
  br label %23

20:                                               ; preds = %23
  %21 = add nuw i32 %18, 1
  %22 = icmp eq i32 %18, %14
  br i1 %22, label %16, label %17, !llvm.loop !10

23:                                               ; preds = %23, %17
  %24 = phi i64 [ 1, %17 ], [ %43, %23 ]
  %25 = phi i32 [ %19, %17 ], [ %42, %23 ]
  %26 = add nsw i64 %24, -1
  %27 = getelementptr inbounds [10000 x i32], [10000 x i32]* %2, i64 0, i64 %26
  %28 = load i32, i32* %27, align 4, !tbaa !5
  %29 = shl nsw i32 %28, 1
  %30 = add nsw i32 %29, %25
  %31 = icmp sgt i32 %30, 9
  %32 = add nsw i32 %30, -10
  %33 = select i1 %31, i32 %32, i32 %30
  %34 = zext i1 %31 to i32
  store i32 %33, i32* %27, align 4, !tbaa !5
  %35 = getelementptr inbounds [10000 x i32], [10000 x i32]* %2, i64 0, i64 %24
  %36 = load i32, i32* %35, align 4, !tbaa !5
  %37 = shl nsw i32 %36, 1
  %38 = or i32 %37, %34
  %39 = icmp sgt i32 %38, 9
  %40 = add nsw i32 %38, -10
  %41 = select i1 %39, i32 %40, i32 %38
  %42 = zext i1 %39 to i32
  store i32 %41, i32* %35, align 4, !tbaa !5
  %43 = add nuw nsw i64 %24, 2
  %44 = icmp eq i64 %43, 10001
  br i1 %44, label %20, label %23, !llvm.loop !12

45:                                               ; preds = %82, %16
  %46 = phi i64 [ 10000, %16 ], [ %83, %82 ]
  %47 = icmp eq i64 %46, 0
  br i1 %47, label %69, label %48

48:                                               ; preds = %45
  %49 = add nsw i64 %46, -1
  %50 = and i64 %49, 4294967295
  %51 = getelementptr inbounds [10000 x i32], [10000 x i32]* %2, i64 0, i64 %50
  %52 = load i32, i32* %51, align 4, !tbaa !5
  %53 = icmp eq i32 %52, 0
  br i1 %53, label %70, label %54, !llvm.loop !13

54:                                               ; preds = %82, %76, %70, %48
  %55 = phi i64 [ %46, %48 ], [ %49, %70 ], [ %71, %76 ], [ %77, %82 ]
  %56 = trunc i64 %55 to i32
  %57 = icmp ne i32 %14, 0
  %58 = icmp sgt i32 %56, 0
  %59 = select i1 %57, i1 %58, i1 false
  br i1 %59, label %60, label %69

60:                                               ; preds = %54
  %61 = and i64 %55, 4294967295
  br label %62

62:                                               ; preds = %60, %62
  %63 = phi i64 [ %61, %60 ], [ %64, %62 ]
  %64 = add nsw i64 %63, -1
  %65 = getelementptr inbounds [10000 x i32], [10000 x i32]* %2, i64 0, i64 %64
  %66 = load i32, i32* %65, align 4, !tbaa !5
  %67 = call nonnull align 8 dereferenceable(8) %"class.std::basic_ostream"* @_ZNSolsEi(%"class.std::basic_ostream"* nonnull align 8 dereferenceable(8) @_ZSt4cout, i32 %66)
  %68 = icmp sgt i64 %63, 1
  br i1 %68, label %62, label %69, !llvm.loop !14

69:                                               ; preds = %45, %62, %54
  call void @llvm.lifetime.end.p0i8(i64 4, i8* nonnull %5) #7
  call void @llvm.lifetime.end.p0i8(i64 40000, i8* nonnull %4) #7
  ret i32 0

70:                                               ; preds = %48
  %71 = add nsw i64 %46, -2
  %72 = and i64 %71, 4294967294
  %73 = getelementptr inbounds [10000 x i32], [10000 x i32]* %2, i64 0, i64 %72
  %74 = load i32, i32* %73, align 8, !tbaa !5
  %75 = icmp eq i32 %74, 0
  br i1 %75, label %76, label %54, !llvm.loop !13

76:                                               ; preds = %70
  %77 = add nsw i64 %46, -3
  %78 = and i64 %77, 4294967293
  %79 = getelementptr inbounds [10000 x i32], [10000 x i32]* %2, i64 0, i64 %78
  %80 = load i32, i32* %79, align 4, !tbaa !5
  %81 = icmp eq i32 %80, 0
  br i1 %81, label %82, label %54, !llvm.loop !13

82:                                               ; preds = %76
  %83 = add nsw i64 %46, -4
  %84 = and i64 %83, 4294967292
  %85 = getelementptr inbounds [10000 x i32], [10000 x i32]* %2, i64 0, i64 %84
  %86 = load i32, i32* %85, align 16, !tbaa !5
  %87 = icmp eq i32 %86, 0
  br i1 %87, label %45, label %54, !llvm.loop !13
}

; Function Attrs: argmemonly mustprogress nofree nosync nounwind willreturn
declare void @llvm.lifetime.start.p0i8(i64 immarg, i8* nocapture) #4

; Function Attrs: argmemonly mustprogress nofree nounwind willreturn writeonly
declare void @llvm.memset.p0i8.i64(i8* nocapture writeonly, i8, i64, i1 immarg) #5

declare nonnull align 8 dereferenceable(16) %"class.std::basic_istream"* @_ZNSirsERi(%"class.std::basic_istream"* nonnull align 8 dereferenceable(16), i32* nonnull align 4 dereferenceable(4)) local_unnamed_addr #0

; Function Attrs: argmemonly mustprogress nofree nosync nounwind willreturn
declare void @llvm.lifetime.end.p0i8(i64 immarg, i8* nocapture) #4

declare nonnull align 8 dereferenceable(8) %"class.std::basic_ostream"* @_ZNSolsEi(%"class.std::basic_ostream"* nonnull align 8 dereferenceable(8), i32) local_unnamed_addr #0

declare nonnull align 8 dereferenceable(8) %"class.std::basic_ostream"* @_ZSt16__ostream_insertIcSt11char_traitsIcEERSt13basic_ostreamIT_T0_ES6_PKS3_l(%"class.std::basic_ostream"* nonnull align 8 dereferenceable(8), i8*, i64) local_unnamed_addr #0

; Function Attrs: sspstrong uwtable
define internal void @_GLOBAL__sub_I_1181.cpp() #6 section ".text.startup" {
  tail call void @_ZNSt8ios_base4InitC1Ev(%"class.std::ios_base::Init"* nonnull align 1 dereferenceable(1) @_ZStL8__ioinit)
  %1 = tail call i32 @__cxa_atexit(void (i8*)* bitcast (void (%"class.std::ios_base::Init"*)* @_ZNSt8ios_base4InitD1Ev to void (i8*)*), i8* getelementptr inbounds (%"class.std::ios_base::Init", %"class.std::ios_base::Init"* @_ZStL8__ioinit, i64 0, i32 0), i8* nonnull @__dso_handle) #7
  ret void
}


!llvm.module.flags = !{!0, !1, !2, !3}
!llvm.ident = !{!4}

!0 = !{i32 1, !"wchar_size", i32 4}
!1 = !{i32 7, !"PIC Level", i32 2}
!2 = !{i32 7, !"PIE Level", i32 2}
!3 = !{i32 7, !"uwtable", i32 1}
!4 = !{!"clang version 13.0.0"}
!5 = !{!6, !6, i64 0}
!6 = !{!"int", !7, i64 0}
!7 = !{!"omnipotent char", !8, i64 0}
!8 = !{!"Simple C++ TBAA"}
!9 = !{!7, !7, i64 0}
!10 = distinct !{!10, !11}
!11 = !{!"llvm.loop.mustprogress"}
!12 = distinct !{!12, !11}
!13 = distinct !{!13, !11}
!14 = distinct !{!14, !11}
